; Function Attrs: mustprogress uwtable
define internal fastcc noundef nonnull ptr @_ZL18stbi__hdr_gettokenP13stbi__contextPc(ptr noundef nonnull %0, ptr noundef nonnull returned writeonly %1) unnamed_addr #5 {
  %3 = getelementptr inbounds nuw i8, ptr %0, i64 192
  %4 = load ptr, ptr %3, align 8, !tbaa !20
  %5 = getelementptr inbounds nuw i8, ptr %0, i64 200
  %6 = load ptr, ptr %5, align 8, !tbaa !23
  %7 = icmp ult ptr %4, %6
  br i1 %7, label %8, label %11

8:                                                ; preds = %2
  %9 = getelementptr inbounds nuw i8, ptr %4, i64 1
  store ptr %9, ptr %3, align 8, !tbaa !20
  %10 = load i8, ptr %4, align 1, !tbaa !22
  br label %_ZL10stbi__get8P13stbi__context.exit

11:                                               ; preds = %2
  %12 = getelementptr inbounds nuw i8, ptr %0, i64 48
  %13 = load i32, ptr %12, align 8, !tbaa !17
  %.not.i = icmp eq i32 %13, 0
  br i1 %.not.i, label %_ZL10stbi__get8P13stbi__context.exit, label %14

14:                                               ; preds = %11
  %15 = getelementptr inbounds nuw i8, ptr %0, i64 16
  %16 = load ptr, ptr %15, align 8, !tbaa !21
  %17 = getelementptr inbounds nuw i8, ptr %0, i64 40
  %18 = load ptr, ptr %17, align 8, !tbaa !13
  %19 = getelementptr inbounds nuw i8, ptr %0, i64 56
  %20 = getelementptr inbounds nuw i8, ptr %0, i64 52
  %21 = load i32, ptr %20, align 4, !tbaa !16
  %22 = tail call noundef i32 %16(ptr noundef %18, ptr noundef nonnull %19, i32 noundef %21)
  %23 = load ptr, ptr %3, align 8, !tbaa !20
  %24 = getelementptr inbounds nuw i8, ptr %0, i64 208
  %25 = load ptr, ptr %24, align 8, !tbaa !19
  %26 = ptrtoint ptr %23 to i64
  %27 = ptrtoint ptr %25 to i64
  %28 = sub i64 %26, %27
  %29 = trunc i64 %28 to i32
  %30 = getelementptr inbounds nuw i8, ptr %0, i64 184
  %31 = load i32, ptr %30, align 8, !tbaa !18
  %32 = add nsw i32 %31, %29
  store i32 %32, ptr %30, align 8, !tbaa !18
  %33 = icmp eq i32 %22, 0
  br i1 %33, label %34, label %36

34:                                               ; preds = %14
  store i32 0, ptr %12, align 8, !tbaa !17
  %35 = getelementptr inbounds nuw i8, ptr %0, i64 57
  store i8 0, ptr %19, align 1, !tbaa !22
  br label %_ZL19stbi__refill_bufferP13stbi__context.exit.i

36:                                               ; preds = %14
  %37 = sext i32 %22 to i64
  %38 = getelementptr inbounds i8, ptr %19, i64 %37
  %.pre.i = load i8, ptr %19, align 1, !tbaa !22
  br label %_ZL19stbi__refill_bufferP13stbi__context.exit.i

_ZL19stbi__refill_bufferP13stbi__context.exit.i:  ; preds = %36, %34
  %39 = phi i8 [ 0, %34 ], [ %.pre.i, %36 ]
  %.sink.i.i = phi ptr [ %35, %34 ], [ %38, %36 ]
  store ptr %.sink.i.i, ptr %5, align 8, !tbaa !23
  %40 = getelementptr inbounds nuw i8, ptr %0, i64 57
  store ptr %40, ptr %3, align 8, !tbaa !20
  br label %_ZL10stbi__get8P13stbi__context.exit

_ZL10stbi__get8P13stbi__context.exit:             ; preds = %8, %11, %_ZL19stbi__refill_bufferP13stbi__context.exit.i
  %41 = phi ptr [ %6, %8 ], [ %.sink.i.i, %_ZL19stbi__refill_bufferP13stbi__context.exit.i ], [ %6, %11 ]
  %42 = phi ptr [ %9, %8 ], [ %40, %_ZL19stbi__refill_bufferP13stbi__context.exit.i ], [ %4, %11 ]
  %.0.i = phi i8 [ %10, %8 ], [ %39, %_ZL19stbi__refill_bufferP13stbi__context.exit.i ], [ 0, %11 ]
  %43 = getelementptr inbounds nuw i8, ptr %0, i64 16
  %44 = getelementptr inbounds nuw i8, ptr %0, i64 32
  %45 = getelementptr inbounds nuw i8, ptr %0, i64 40
  %46 = getelementptr inbounds nuw i8, ptr %0, i64 48
  %47 = getelementptr inbounds nuw i8, ptr %0, i64 56
  %48 = getelementptr inbounds nuw i8, ptr %0, i64 52
  %49 = getelementptr inbounds nuw i8, ptr %0, i64 208
  %50 = getelementptr inbounds nuw i8, ptr %0, i64 184
  %51 = getelementptr inbounds nuw i8, ptr %0, i64 57
  br label %_ZL10stbi__get8P13stbi__context.exit33

_ZL10stbi__get8P13stbi__context.exit33:           ; preds = %_ZL10stbi__get8P13stbi__context.exit33.backedge, %_ZL10stbi__get8P13stbi__context.exit
  %52 = phi ptr [ %41, %_ZL10stbi__get8P13stbi__context.exit ], [ %.be, %_ZL10stbi__get8P13stbi__context.exit33.backedge ]
  %53 = phi ptr [ %42, %_ZL10stbi__get8P13stbi__context.exit ], [ %.be53, %_ZL10stbi__get8P13stbi__context.exit33.backedge ]
  %indvars.iv = phi i64 [ 0, %_ZL10stbi__get8P13stbi__context.exit ], [ %indvars.iv.next, %_ZL10stbi__get8P13stbi__context.exit33.backedge ]
  %.0 = phi i8 [ %.0.i, %_ZL10stbi__get8P13stbi__context.exit ], [ %.0.be, %_ZL10stbi__get8P13stbi__context.exit33.backedge ]
  %54 = load ptr, ptr %43, align 8, !tbaa !21
  %.not.i16 = icmp eq ptr %54, null
  br i1 %.not.i16, label %62, label %55

55:                                               ; preds = %_ZL10stbi__get8P13stbi__context.exit33
  %56 = load ptr, ptr %44, align 8, !tbaa !146
  %57 = load ptr, ptr %45, align 8, !tbaa !13
  %58 = tail call noundef i32 %56(ptr noundef %57)
  %.not6.i = icmp eq i32 %58, 0
  br i1 %.not6.i, label %_ZL12stbi__at_eofP13stbi__context.exit, label %59

59:                                               ; preds = %55
  %60 = load i32, ptr %46, align 8, !tbaa !17
  %61 = icmp eq i32 %60, 0
  br i1 %61, label %.critedge.loopexit46, label %._crit_edge

._crit_edge:                                      ; preds = %59
  %.pre = load ptr, ptr %3, align 8, !tbaa !20
  %.pre48 = load ptr, ptr %5, align 8, !tbaa !23
  br label %62

62:                                               ; preds = %._crit_edge, %_ZL10stbi__get8P13stbi__context.exit33
  %63 = phi ptr [ %.pre48, %._crit_edge ], [ %52, %_ZL10stbi__get8P13stbi__context.exit33 ]
  %64 = phi ptr [ %.pre, %._crit_edge ], [ %53, %_ZL10stbi__get8P13stbi__context.exit33 ]
  %.not = icmp ult ptr %64, %63
  br label %_ZL12stbi__at_eofP13stbi__context.exit

_ZL12stbi__at_eofP13stbi__context.exit:           ; preds = %55, %62
  %.0.i17 = phi i1 [ %.not, %62 ], [ true, %55 ]
  %65 = icmp ne i8 %.0, 10
  %66 = and i1 %65, %.0.i17
  br i1 %66, label %67, label %.critedge.loopexit46

67:                                               ; preds = %_ZL12stbi__at_eofP13stbi__context.exit
  %indvars.iv.next = add nuw nsw i64 %indvars.iv, 1
  %68 = getelementptr inbounds nuw i8, ptr %1, i64 %indvars.iv
  store i8 %.0, ptr %68, align 1, !tbaa !22
  %69 = icmp eq i64 %indvars.iv.next, 1023
  br i1 %69, label %.preheader, label %107

.preheader:                                       ; preds = %67, %_ZL10stbi__get8P13stbi__context.exit27
  %70 = load ptr, ptr %43, align 8, !tbaa !21
  %.not.i18 = icmp eq ptr %70, null
  br i1 %.not.i18, label %_ZL12stbi__at_eofP13stbi__context.exit21, label %71

71:                                               ; preds = %.preheader
  %72 = load ptr, ptr %44, align 8, !tbaa !146
  %73 = load ptr, ptr %45, align 8, !tbaa !13
  %74 = tail call noundef i32 %72(ptr noundef %73)
  %.not6.i19 = icmp eq i32 %74, 0
  br i1 %.not6.i19, label %._ZL12stbi__at_eofP13stbi__context.exit21.thread_crit_edge, label %75

._ZL12stbi__at_eofP13stbi__context.exit21.thread_crit_edge: ; preds = %71
  %.pre49 = load ptr, ptr %3, align 8, !tbaa !20
  %.pre50 = load ptr, ptr %5, align 8, !tbaa !23
  br label %_ZL12stbi__at_eofP13stbi__context.exit21.thread

75:                                               ; preds = %71
  %76 = load i32, ptr %46, align 8, !tbaa !17
  %77 = icmp eq i32 %76, 0
  br i1 %77, label %.critedge, label %_ZL12stbi__at_eofP13stbi__context.exit21

_ZL12stbi__at_eofP13stbi__context.exit21:         ; preds = %.preheader, %75
  %78 = load ptr, ptr %3, align 8, !tbaa !20
  %79 = load ptr, ptr %5, align 8, !tbaa !23
  %.not41 = icmp ult ptr %78, %79
  br i1 %.not41, label %_ZL12stbi__at_eofP13stbi__context.exit21.thread, label %.critedge

_ZL12stbi__at_eofP13stbi__context.exit21.thread:  ; preds = %._ZL12stbi__at_eofP13stbi__context.exit21.thread_crit_edge, %_ZL12stbi__at_eofP13stbi__context.exit21
  %80 = phi ptr [ %.pre50, %._ZL12stbi__at_eofP13stbi__context.exit21.thread_crit_edge ], [ %79, %_ZL12stbi__at_eofP13stbi__context.exit21 ]
  %81 = phi ptr [ %.pre49, %._ZL12stbi__at_eofP13stbi__context.exit21.thread_crit_edge ], [ %78, %_ZL12stbi__at_eofP13stbi__context.exit21 ]
  %82 = icmp ult ptr %81, %80
  br i1 %82, label %83, label %86

83:                                               ; preds = %_ZL12stbi__at_eofP13stbi__context.exit21.thread
  %84 = getelementptr inbounds nuw i8, ptr %81, i64 1
  store ptr %84, ptr %3, align 8, !tbaa !20
  %85 = load i8, ptr %81, align 1, !tbaa !22
  br label %_ZL10stbi__get8P13stbi__context.exit27

86:                                               ; preds = %_ZL12stbi__at_eofP13stbi__context.exit21.thread
  %87 = load i32, ptr %46, align 8, !tbaa !17
  %.not.i22 = icmp eq i32 %87, 0
  br i1 %.not.i22, label %_ZL10stbi__get8P13stbi__context.exit27, label %88

88:                                               ; preds = %86
  %89 = load ptr, ptr %43, align 8, !tbaa !21
  %90 = load ptr, ptr %45, align 8, !tbaa !13
  %91 = load i32, ptr %48, align 4, !tbaa !16
  %92 = tail call noundef i32 %89(ptr noundef %90, ptr noundef nonnull %47, i32 noundef %91)
  %93 = load ptr, ptr %3, align 8, !tbaa !20
  %94 = load ptr, ptr %49, align 8, !tbaa !19
  %95 = ptrtoint ptr %93 to i64
  %96 = ptrtoint ptr %94 to i64
  %97 = sub i64 %95, %96
  %98 = trunc i64 %97 to i32
  %99 = load i32, ptr %50, align 8, !tbaa !18
  %100 = add nsw i32 %99, %98
  store i32 %100, ptr %50, align 8, !tbaa !18
  %101 = icmp eq i32 %92, 0
  br i1 %101, label %102, label %103

102:                                              ; preds = %88
  store i32 0, ptr %46, align 8, !tbaa !17
  store i8 0, ptr %47, align 1, !tbaa !22
  br label %_ZL19stbi__refill_bufferP13stbi__context.exit.i24

103:                                              ; preds = %88
  %104 = sext i32 %92 to i64
  %105 = getelementptr inbounds i8, ptr %47, i64 %104
  %.pre.i23 = load i8, ptr %47, align 1, !tbaa !22
  br label %_ZL19stbi__refill_bufferP13stbi__context.exit.i24

_ZL19stbi__refill_bufferP13stbi__context.exit.i24: ; preds = %103, %102
  %106 = phi i8 [ 0, %102 ], [ %.pre.i23, %103 ]
  %.sink.i.i25 = phi ptr [ %51, %102 ], [ %105, %103 ]
  store ptr %.sink.i.i25, ptr %5, align 8, !tbaa !23
  store ptr %51, ptr %3, align 8, !tbaa !20
  br label %_ZL10stbi__get8P13stbi__context.exit27

_ZL10stbi__get8P13stbi__context.exit27:           ; preds = %83, %86, %_ZL19stbi__refill_bufferP13stbi__context.exit.i24
  %.0.i26 = phi i8 [ %85, %83 ], [ %106, %_ZL19stbi__refill_bufferP13stbi__context.exit.i24 ], [ 0, %86 ]
  %.not15 = icmp eq i8 %.0.i26, 10
  br i1 %.not15, label %.critedge, label %.preheader, !llvm.loop !375

107:                                              ; preds = %67
  %108 = load ptr, ptr %3, align 8, !tbaa !20
  %109 = load ptr, ptr %5, align 8, !tbaa !23
  %110 = icmp ult ptr %108, %109
  br i1 %110, label %111, label %114

111:                                              ; preds = %107
  %112 = getelementptr inbounds nuw i8, ptr %108, i64 1
  store ptr %112, ptr %3, align 8, !tbaa !20
  %113 = load i8, ptr %108, align 1, !tbaa !22
  br label %_ZL10stbi__get8P13stbi__context.exit33.backedge

_ZL10stbi__get8P13stbi__context.exit33.backedge:  ; preds = %111, %114, %_ZL19stbi__refill_bufferP13stbi__context.exit.i30
  %.be = phi ptr [ %109, %111 ], [ %.sink.i.i31, %_ZL19stbi__refill_bufferP13stbi__context.exit.i30 ], [ %109, %114 ]
  %.be53 = phi ptr [ %112, %111 ], [ %51, %_ZL19stbi__refill_bufferP13stbi__context.exit.i30 ], [ %108, %114 ]
  %.0.be = phi i8 [ %113, %111 ], [ %134, %_ZL19stbi__refill_bufferP13stbi__context.exit.i30 ], [ 0, %114 ]
  br label %_ZL10stbi__get8P13stbi__context.exit33, !llvm.loop !376

114:                                              ; preds = %107
  %115 = load i32, ptr %46, align 8, !tbaa !17
  %.not.i28 = icmp eq i32 %115, 0
  br i1 %.not.i28, label %_ZL10stbi__get8P13stbi__context.exit33.backedge, label %116

116:                                              ; preds = %114
  %117 = load ptr, ptr %43, align 8, !tbaa !21
  %118 = load ptr, ptr %45, align 8, !tbaa !13
  %119 = load i32, ptr %48, align 4, !tbaa !16
  %120 = tail call noundef i32 %117(ptr noundef %118, ptr noundef nonnull %47, i32 noundef %119)
  %121 = load ptr, ptr %3, align 8, !tbaa !20
  %122 = load ptr, ptr %49, align 8, !tbaa !19
  %123 = ptrtoint ptr %121 to i64
  %124 = ptrtoint ptr %122 to i64
  %125 = sub i64 %123, %124
  %126 = trunc i64 %125 to i32
  %127 = load i32, ptr %50, align 8, !tbaa !18
  %128 = add nsw i32 %127, %126
  store i32 %128, ptr %50, align 8, !tbaa !18
  %129 = icmp eq i32 %120, 0
  br i1 %129, label %130, label %131

130:                                              ; preds = %116
  store i32 0, ptr %46, align 8, !tbaa !17
  store i8 0, ptr %47, align 1, !tbaa !22
  br label %_ZL19stbi__refill_bufferP13stbi__context.exit.i30

131:                                              ; preds = %116
  %132 = sext i32 %120 to i64
  %133 = getelementptr inbounds i8, ptr %47, i64 %132
  %.pre.i29 = load i8, ptr %47, align 1, !tbaa !22
  br label %_ZL19stbi__refill_bufferP13stbi__context.exit.i30

_ZL19stbi__refill_bufferP13stbi__context.exit.i30: ; preds = %131, %130
  %134 = phi i8 [ 0, %130 ], [ %.pre.i29, %131 ]
  %.sink.i.i31 = phi ptr [ %51, %130 ], [ %133, %131 ]
  store ptr %.sink.i.i31, ptr %5, align 8, !tbaa !23
  store ptr %51, ptr %3, align 8, !tbaa !20
  br label %_ZL10stbi__get8P13stbi__context.exit33.backedge

.critedge.loopexit46:                             ; preds = %_ZL12stbi__at_eofP13stbi__context.exit, %59
  %135 = and i64 %indvars.iv, 4294967295
  br label %.critedge

.critedge:                                        ; preds = %75, %_ZL10stbi__get8P13stbi__context.exit27, %_ZL12stbi__at_eofP13stbi__context.exit21, %.critedge.loopexit46
  %.1 = phi i64 [ %135, %.critedge.loopexit46 ], [ 1023, %_ZL12stbi__at_eofP13stbi__context.exit21 ], [ 1023, %_ZL10stbi__get8P13stbi__context.exit27 ], [ 1023, %75 ]
  %136 = getelementptr inbounds nuw i8, ptr %1, i64 %.1
  store i8 0, ptr %136, align 1, !tbaa !22
  ret ptr %1
}